; Function Attrs: mustprogress uwtable
define void @_ZNK11OpenImageIO6v3_1_011ColorConfig20createNamedTransformENS0_17basic_string_viewIcSt11char_traitsIcEEEbS5_S5_(ptr dead_on_unwind noalias writable sret(%"class.std::shared_ptr.20") align 8 %0, ptr noundef nonnull readonly align 8 captures(none) dereferenceable(8) %1, ptr noundef readonly captures(none) %2, i1 noundef zeroext %3, ptr noundef readonly captures(none) %4, ptr noundef readonly captures(none) %5) local_unnamed_addr #5 align 2 {
  %7 = alloca %"class.OpenImageIO::v3_1_0::basic_string_view", align 8
  %8 = alloca %"class.OpenImageIO::v3_1_0::basic_string_view", align 8
  %9 = alloca %"class.OpenImageIO::v3_1_0::basic_string_view", align 8
  %10 = load ptr, ptr %2, align 8, !tbaa !4
  %11 = getelementptr inbounds nuw i8, ptr %2, i64 8
  %12 = load i64, ptr %11, align 8, !tbaa !11
  call void @llvm.lifetime.start.p0(i64 16, ptr nonnull %9)
  %.not.i = icmp eq ptr %10, null
  br i1 %.not.i, label %_ZN11OpenImageIO6v3_1_07ustringC2ENS0_17basic_string_viewIcSt11char_traitsIcEEE.exit, label %13

13:                                               ; preds = %6
  store ptr %10, ptr %9, align 8, !tbaa !4
  %14 = getelementptr inbounds nuw i8, ptr %9, i64 8
  store i64 %12, ptr %14, align 8, !tbaa !11
  %15 = call noundef ptr @_ZN11OpenImageIO6v3_1_07ustring11make_uniqueENS0_17basic_string_viewIcSt11char_traitsIcEEE(ptr noundef nonnull %9)
  br label %_ZN11OpenImageIO6v3_1_07ustringC2ENS0_17basic_string_viewIcSt11char_traitsIcEEE.exit

_ZN11OpenImageIO6v3_1_07ustringC2ENS0_17basic_string_viewIcSt11char_traitsIcEEE.exit: ; preds = %6, %13
  %16 = phi ptr [ %15, %13 ], [ null, %6 ]
  call void @llvm.lifetime.end.p0(i64 16, ptr nonnull %9)
  %17 = load ptr, ptr %4, align 8, !tbaa !4
  %18 = getelementptr inbounds nuw i8, ptr %4, i64 8
  %19 = load i64, ptr %18, align 8, !tbaa !11
  call void @llvm.lifetime.start.p0(i64 16, ptr nonnull %8)
  %.not.i1 = icmp eq ptr %17, null
  br i1 %.not.i1, label %_ZN11OpenImageIO6v3_1_07ustringC2ENS0_17basic_string_viewIcSt11char_traitsIcEEE.exit2, label %20

20:                                               ; preds = %_ZN11OpenImageIO6v3_1_07ustringC2ENS0_17basic_string_viewIcSt11char_traitsIcEEE.exit
  store ptr %17, ptr %8, align 8, !tbaa !4
  %21 = getelementptr inbounds nuw i8, ptr %8, i64 8
  store i64 %19, ptr %21, align 8, !tbaa !11
  %22 = call noundef ptr @_ZN11OpenImageIO6v3_1_07ustring11make_uniqueENS0_17basic_string_viewIcSt11char_traitsIcEEE(ptr noundef nonnull %8)
  br label %_ZN11OpenImageIO6v3_1_07ustringC2ENS0_17basic_string_viewIcSt11char_traitsIcEEE.exit2

_ZN11OpenImageIO6v3_1_07ustringC2ENS0_17basic_string_viewIcSt11char_traitsIcEEE.exit2: ; preds = %_ZN11OpenImageIO6v3_1_07ustringC2ENS0_17basic_string_viewIcSt11char_traitsIcEEE.exit, %20
  %23 = phi ptr [ %22, %20 ], [ null, %_ZN11OpenImageIO6v3_1_07ustringC2ENS0_17basic_string_viewIcSt11char_traitsIcEEE.exit ]
  call void @llvm.lifetime.end.p0(i64 16, ptr nonnull %8)
  %24 = load ptr, ptr %5, align 8, !tbaa !4
  %25 = getelementptr inbounds nuw i8, ptr %5, i64 8
  %26 = load i64, ptr %25, align 8, !tbaa !11
  call void @llvm.lifetime.start.p0(i64 16, ptr nonnull %7)
  %.not.i3 = icmp eq ptr %24, null
  br i1 %.not.i3, label %_ZN11OpenImageIO6v3_1_07ustringC2ENS0_17basic_string_viewIcSt11char_traitsIcEEE.exit4, label %27

27:                                               ; preds = %_ZN11OpenImageIO6v3_1_07ustringC2ENS0_17basic_string_viewIcSt11char_traitsIcEEE.exit2
  store ptr %24, ptr %7, align 8, !tbaa !4
  %28 = getelementptr inbounds nuw i8, ptr %7, i64 8
  store i64 %26, ptr %28, align 8, !tbaa !11
  %29 = call noundef ptr @_ZN11OpenImageIO6v3_1_07ustring11make_uniqueENS0_17basic_string_viewIcSt11char_traitsIcEEE(ptr noundef nonnull %7)
  br label %_ZN11OpenImageIO6v3_1_07ustringC2ENS0_17basic_string_viewIcSt11char_traitsIcEEE.exit4

_ZN11OpenImageIO6v3_1_07ustringC2ENS0_17basic_string_viewIcSt11char_traitsIcEEE.exit4: ; preds = %_ZN11OpenImageIO6v3_1_07ustringC2ENS0_17basic_string_viewIcSt11char_traitsIcEEE.exit2, %27
  %30 = phi ptr [ %29, %27 ], [ null, %_ZN11OpenImageIO6v3_1_07ustringC2ENS0_17basic_string_viewIcSt11char_traitsIcEEE.exit2 ]
  call void @llvm.lifetime.end.p0(i64 16, ptr nonnull %7)
  call void @_ZNK11OpenImageIO6v3_1_011ColorConfig20createNamedTransformENS0_7ustringEbS2_S2_(ptr dead_on_unwind writable sret(%"class.std::shared_ptr.20") align 8 %0, ptr noundef nonnull align 8 dereferenceable(8) %1, ptr %16, i1 noundef zeroext %3, ptr %23, ptr %30)
  ret void
}